Certificate:
    Data:
        Version: 3 (0x2)
        Serial Number: 2 (0x2)
    Signature Algorithm: sha256WithRSAEncryption
        Issuer: C=CN, ST=SH, L=SH, O=NEO, OU=NEO, CN=minge/emailAddress=minge@126.com
        Validity
            Not Before: Jun 17 14:33:07 2019 GMT
            Not After : Jun 14 14:33:07 2029 GMT
        Subject: C=CN, ST=SH, O=NEO, OU=NEO, CN=minge/emailAddress=minge@126.com
        Subject Public Key Info:
            Public Key Algorithm: rsaEncryption
                Public-Key: (2048 bit)
                Modulus:
                    00:b7:71:de:47:ea:b4:e0:0b:4d:56:51:4a:f8:d5:
                    fb:6d:f5:ba:69:cd:86:ba:07:57:8e:86:5d:8b:df:
                    dc:e5:8d:cc:5b:bd:80:63:c3:7d:0a:72:30:31:dd:
                    01:0c:2d:5f:ca:62:02:0c:75:7b:19:8b:d2:aa:fe:
                    66:9e:00:0b:9c:cb:dc:94:85:d1:e2:d6:68:a2:75:
                    7e:08:4f:34:f0:7f:a8:4f:52:d8:0e:e8:4f:f4:bf:
                    3c:37:4e:d1:1e:0e:aa:29:84:71:45:48:a6:7f:75:
                    44:c6:19:09:67:7c:5e:82:fa:29:a2:95:38:f5:af:
                    2d:ac:45:cd:cc:76:a1:9c:d3:b0:e9:fa:0c:75:dc:
                    5c:a6:e6:b2:95:bf:4e:10:4c:53:f7:56:56:3b:20:
                    39:08:c1:5f:f8:8d:3b:1e:a0:6d:27:1c:78:10:a3:
                    da:75:d2:bd:80:c5:a9:80:b4:08:61:3c:61:48:f4:
                    c5:85:27:a0:0c:33:b0:37:7f:64:7c:cf:a2:6a:fb:
                    c6:b9:a0:b8:7c:8f:dc:3b:79:22:62:4a:4b:b4:81:
                    07:aa:e8:06:25:7c:42:e5:8a:57:cd:27:3f:db:e8:
                    55:07:ca:90:27:43:92:0f:59:fd:e2:dc:31:ab:2d:
                    66:0c:51:7b:08:f5:8f:83:86:26:5a:8c:81:bc:df:
                    28:11
                Exponent: 65537 (0x10001)
        X509v3 extensions:
            X509v3 Subject Key Identifier: 
                E9:A7:5E:B9:CF:E0:A6:BF:9A:9C:BE:FD:18:B9:0A:EF:34:6D:05:04
            X509v3 Authority Key Identifier: 
                keyid:2F:E0:9F:46:AC:BC:B9:F9:25:B2:40:03:E4:E7:35:6B:AC:7F:14:DA

            X509v3 Basic Constraints: 
                CA:TRUE
    Signature Algorithm: sha256WithRSAEncryption
         34:c3:3c:54:9e:93:fb:ea:48:91:26:43:03:f1:e9:74:d6:e9:
         db:f2:fa:93:2b:0c:2f:af:54:6e:84:9b:5c:3b:bc:bd:1a:36:
         72:40:18:c3:76:d8:1d:c0:b8:31:6d:f9:67:4d:3d:9f:54:6c:
         96:3d:8b:e8:1d:2c:6b:3f:5c:97:9a:85:64:03:d7:fd:6f:08:
         17:b7:82:b8:f7:17:ef:e6:77:e0:5d:86:35:55:4b:3e:f3:32:
         08:17:69:5e:18:f7:b6:3b:1c:9e:67:c4:d7:09:3a:bc:5c:5c:
         e6:22:93:d0:f3:25:2f:9d:7f:92:ce:cc:f5:dc:66:4c:99:d6:
         93:6b:f5:c4:96:9c:0d:08:cc:aa:b1:9c:43:99:76:9e:07:26:
         55:e5:c1:be:b9:a7:9a:a4:f1:5b:88:19:12:49:e5:27:d3:b8:
         fb:a9:33:9a:34:29:a6:16:74:b9:62:f0:5e:fe:27:e9:dd:71:
         69:05:14:f1:23:c9:44:30:32:ad:1d:e4:1f:05:6c:00:c9:29:
         a4:5f:26:73:5d:90:4a:65:71:4d:4c:78:aa:cd:d8:8d:0f:06:
         5c:1f:81:2a:50:7e:6d:0e:6e:7a:f1:a3:ec:b9:31:32:43:e6:
         96:5e:df:c8:40:1d:b0:02:a9:fa:98:48:44:a0:ff:b3:35:5b:
         0c:be:3d:d9
-----BEGIN CERTIFICATE-----
MIIDoDCCAoigAwIBAgIBAjANBgkqhkiG9w0BAQsFADBxMQswCQYDVQQGEwJDTjEL
MAkGA1UECAwCU0gxCzAJBgNVBAcMAlNIMQwwCgYDVQQKDANORU8xDDAKBgNVBAsM
A05FTzEOMAwGA1UEAwwFbWluZ2UxHDAaBgkqhkiG9w0BCQEWDW1pbmdlQDEyNi5j
b20wHhcNMTkwNjE3MTQzMzA3WhcNMjkwNjE0MTQzMzA3WjBkMQswCQYDVQQGEwJD
TjELMAkGA1UECAwCU0gxDDAKBgNVBAoMA05FTzEMMAoGA1UECwwDTkVPMQ4wDAYD
VQQDDAVtaW5nZTEcMBoGCSqGSIb3DQEJARYNbWluZ2VAMTI2LmNvbTCCASIwDQYJ
KoZIhvcNAQEBBQADggEPADCCAQoCggEBALdx3kfqtOALTVZRSvjV+231umnNhroH
V46GXYvf3OWNzFu9gGPDfQpyMDHdAQwtX8piAgx1exmL0qr+Zp4AC5zL3JSF0eLW
aKJ1fghPNPB/qE9S2A7oT/S/PDdO0R4OqimEcUVIpn91RMYZCWd8XoL6KaKVOPWv
LaxFzcx2oZzTsOn6DHXcXKbmspW/ThBMU/dWVjsgOQjBX/iNOx6gbScceBCj2nXS
vYDFqYC0CGE8YUj0xYUnoAwzsDd/ZHzPomr7xrmguHyP3Dt5ImJKS7SBB6roBiV8
QuWKV80nP9voVQfKkCdDkg9Z/eLcMastZgxRewj1j4OGJlqMgbzfKBECAwEAAaNQ
ME4wHQYDVR0OBBYEFOmnXrnP4Ka/mpy+/Ri5Cu80bQUEMB8GA1UdIwQYMBaAFC/g
n0asvLn5JbJAA+TnNWusfxTaMAwGA1UdEwQFMAMBAf8wDQYJKoZIhvcNAQELBQAD
ggEBADTDPFSek/vqSJEmQwPx6XTW6dvy+pMrDC+vVG6Em1w7vL0aNnJAGMN22B3A
uDFt+WdNPZ9UbJY9i+gdLGs/XJeahWQD1/1vCBe3grj3F+/md+BdhjVVSz7zMggX
aV4Y97Y7HJ5nxNcJOrxcXOYik9DzJS+df5LOzPXcZkyZ1pNr9cSWnA0IzKqxnEOZ
dp4HJlXlwb65p5qk8VuIGRJJ5SfTuPupM5o0KaYWdLli8F7+J+ndcWkFFPEjyUQw
Mq0d5B8FbADJKaRfJnNdkEplcU1MeKrN2I0PBlwfgSpQfm0Obnrxo+y5MTJD5pZe
38hAHbACqfqYSESg/7M1Wwy+Pdk=
-----END CERTIFICATE-----
