Certificate:
    Data:
        Version: 3 (0x2)
        Serial Number: 3 (0x3)
    Signature Algorithm: sha256WithRSAEncryption
        Issuer: C=CN, ST=SH, O=NEO, OU=NEO, CN=minge/emailAddress=minge@126.com
        Validity
            Not Before: Jun 17 14:37:13 2019 GMT
            Not After : Jun 14 14:37:13 2029 GMT
        Subject: C=CN, ST=SH, O=NEO, OU=neo, CN=level3/emailAddress=level3@126.com
        Subject Public Key Info:
            Public Key Algorithm: rsaEncryption
                Public-Key: (2048 bit)
                Modulus:
                    00:ba:49:36:8d:da:af:23:dd:6c:fe:cf:64:54:2f:
                    93:a3:00:7e:6e:72:01:57:35:d4:ff:8e:30:ab:4d:
                    9f:ee:2b:f8:63:c6:58:04:4b:6f:a8:cb:dc:36:64:
                    9d:a7:92:6f:17:ac:43:f2:43:63:0f:5a:bb:eb:e0:
                    d1:57:6b:a7:bb:b5:62:9d:86:9d:4b:4a:2f:e6:6e:
                    10:ab:85:6c:74:b3:b4:8e:d6:41:65:a7:b7:cb:ab:
                    c8:92:4b:13:4a:62:3c:aa:26:69:cd:e1:a3:8c:53:
                    87:8a:79:d0:8f:ea:7a:75:90:19:9b:0f:c5:c8:15:
                    fa:56:3f:81:f7:0b:74:be:d6:1f:f3:a0:fe:b8:5b:
                    41:ed:a7:b7:07:39:cb:52:99:03:cb:23:fc:10:0d:
                    79:ae:76:b9:15:35:55:0e:b5:6c:e2:b3:c7:29:48:
                    98:ec:95:ca:0f:41:67:74:33:95:aa:ed:6b:8a:75:
                    af:6d:db:a0:58:9f:cc:8c:b2:31:63:41:41:94:e3:
                    9b:dd:26:52:de:d8:24:2c:35:28:28:f5:85:dd:19:
                    7c:f6:23:4f:ed:c7:86:5e:88:17:a3:0f:a4:f4:aa:
                    fa:8e:e6:72:7c:d6:e6:39:d3:37:02:ad:de:1f:db:
                    7c:5f:ac:2a:73:70:96:1f:f8:b5:46:7d:7f:9e:0c:
                    3a:49
                Exponent: 65537 (0x10001)
        X509v3 extensions:
            X509v3 Subject Key Identifier: 
                BE:C3:67:94:33:00:E9:9A:E2:C7:B2:8A:DD:CC:18:E0:43:B9:1D:5B
            X509v3 Authority Key Identifier: 
                keyid:E9:A7:5E:B9:CF:E0:A6:BF:9A:9C:BE:FD:18:B9:0A:EF:34:6D:05:04

            X509v3 Basic Constraints: 
                CA:TRUE
    Signature Algorithm: sha256WithRSAEncryption
         44:bc:e4:32:3d:35:25:bc:e1:1d:6d:c5:7a:27:8d:22:27:69:
         19:a9:df:2f:1c:45:ef:25:be:13:36:17:71:cd:84:0a:4a:42:
         e5:17:0c:6d:4e:b0:34:f7:d0:7c:b8:9d:d1:27:d0:3e:f4:4a:
         2d:a6:20:c0:28:5b:e5:be:66:6c:35:39:d3:65:e8:47:ee:18:
         d1:9d:1e:28:10:1c:cb:c9:32:47:dd:e2:2d:5f:cc:26:30:e3:
         11:b5:62:28:cd:9f:8e:ce:3c:3b:1f:df:ef:b7:53:22:ef:ff:
         4c:0a:ee:a4:3e:52:5c:22:7f:c8:f8:8f:54:45:d2:e3:8f:c4:
         1f:ff:39:6a:2e:17:41:33:18:59:82:f1:9a:28:0c:9e:48:e0:
         33:c1:23:b5:5e:96:9e:44:90:7f:10:13:53:fb:dc:31:0b:fa:
         b5:e8:e3:46:46:af:a9:8f:3c:3e:d3:95:b5:3e:bc:a8:f4:56:
         4d:16:02:4e:59:cf:c3:ad:c7:42:8b:d2:3b:d1:af:21:fd:e4:
         5d:a0:bf:c9:bd:b6:5a:a1:a7:b9:c6:69:2e:1e:f1:4d:b6:dd:
         6f:59:af:af:50:e0:5d:2c:3a:0a:21:0d:6c:33:9e:68:be:d7:
         65:eb:4b:5e:1b:da:71:6f:61:67:7e:e0:24:4a:4c:45:75:c3:
         b2:e1:80:a2
-----BEGIN CERTIFICATE-----
MIIDlTCCAn2gAwIBAgIBAzANBgkqhkiG9w0BAQsFADBkMQswCQYDVQQGEwJDTjEL
MAkGA1UECAwCU0gxDDAKBgNVBAoMA05FTzEMMAoGA1UECwwDTkVPMQ4wDAYDVQQD
DAVtaW5nZTEcMBoGCSqGSIb3DQEJARYNbWluZ2VAMTI2LmNvbTAeFw0xOTA2MTcx
NDM3MTNaFw0yOTA2MTQxNDM3MTNaMGYxCzAJBgNVBAYTAkNOMQswCQYDVQQIDAJT
SDEMMAoGA1UECgwDTkVPMQwwCgYDVQQLDANuZW8xDzANBgNVBAMMBmxldmVsMzEd
MBsGCSqGSIb3DQEJARYObGV2ZWwzQDEyNi5jb20wggEiMA0GCSqGSIb3DQEBAQUA
A4IBDwAwggEKAoIBAQC6STaN2q8j3Wz+z2RUL5OjAH5ucgFXNdT/jjCrTZ/uK/hj
xlgES2+oy9w2ZJ2nkm8XrEPyQ2MPWrvr4NFXa6e7tWKdhp1LSi/mbhCrhWx0s7SO
1kFlp7fLq8iSSxNKYjyqJmnN4aOMU4eKedCP6np1kBmbD8XIFfpWP4H3C3S+1h/z
oP64W0Htp7cHOctSmQPLI/wQDXmudrkVNVUOtWzis8cpSJjslcoPQWd0M5Wq7WuK
da9t26BYn8yMsjFjQUGU45vdJlLe2CQsNSgo9YXdGXz2I0/tx4ZeiBejD6T0qvqO
5nJ81uY50zcCrd4f23xfrCpzcJYf+LVGfX+eDDpJAgMBAAGjUDBOMB0GA1UdDgQW
BBS+w2eUMwDpmuLHsordzBjgQ7kdWzAfBgNVHSMEGDAWgBTpp165z+Cmv5qcvv0Y
uQrvNG0FBDAMBgNVHRMEBTADAQH/MA0GCSqGSIb3DQEBCwUAA4IBAQBEvOQyPTUl
vOEdbcV6J40iJ2kZqd8vHEXvJb4TNhdxzYQKSkLlFwxtTrA099B8uJ3RJ9A+9Eot
piDAKFvlvmZsNTnTZehH7hjRnR4oEBzLyTJH3eItX8wmMOMRtWIozZ+Ozjw7H9/v
t1Mi7/9MCu6kPlJcIn/I+I9URdLjj8Qf/zlqLhdBMxhZgvGaKAyeSOAzwSO1Xpae
RJB/EBNT+9wxC/q16ONGRq+pjzw+05W1Pryo9FZNFgJOWc/DrcdCi9I70a8h/eRd
oL/JvbZaoae5xmkuHvFNtt1vWa+vUOBdLDoKIQ1sM55ovtdl60teG9pxb2FnfuAk
SkxFdcOy4YCi
-----END CERTIFICATE-----
